target datalayout = "e-m:e-p270:32:32-p271:32:32-p272:64:64-i64:64-i128:128-f80:128-n8:16:32:64-S128"
target triple = "x86_64-pc-linux-gnu"

%struct.H5P_genclass_t = type { ptr, ptr, i32, i64, i32, i32, i32, i8, i32, ptr, ptr, ptr, ptr, ptr, ptr, ptr }

@H5P_init_g = external global i8, align 1
@H5_libterm_g = external global i8, align 1
@.str.7 = private unnamed_addr constant [100 x i8] c"generated/home/dtcxzyw/WorkSpace/Projects/compilers/llvm-opt-benchmark/bench/hdf5/hdf5/src/H5Pint.c\00", align 1
@H5E_CANTINIT_g = external global i64, align 8
@H5E_PLIST_g = external global i64, align 8
@H5E_CANTCREATE_g = external global i64, align 8
@__func__.H5P__create_class = private unnamed_addr constant [18 x i8] c"H5P__create_class\00", align 1
@H5E_CANTALLOC_g = external global i64, align 8
@.str.35 = private unnamed_addr constant [38 x i8] c"property list class allocation failed\00", align 1
@.str.36 = private unnamed_addr constant [43 x i8] c"property list class name allocation failed\00", align 1
@H5P_next_rev = internal global i32 0, align 4
@.str.37 = private unnamed_addr constant [38 x i8] c"can't create skip list for properties\00", align 1
@.str.38 = private unnamed_addr constant [39 x i8] c"Can't increment parent class ref count\00", align 1
@H5_H5P_genclass_t_reg_free_list = internal global { i8, [3 x i8], i32, i32, [4 x i8], ptr, i64, ptr } { i8 0, [3 x i8] zeroinitializer, i32 0, i32 0, [4 x i8] zeroinitializer, ptr @.str.88, i64 112, ptr null }, align 8

; Function Attrs: nounwind uwtable
define ptr @H5P__create_class(ptr noundef %0, ptr noundef %1, i32 noundef %2, ptr noundef %3, ptr noundef %4, ptr noundef %5, ptr noundef %6, ptr noundef %7, ptr noundef %8) #0 {
  %10 = alloca ptr, align 8
  %11 = alloca ptr, align 8
  %12 = alloca i32, align 4
  %13 = alloca ptr, align 8
  %14 = alloca ptr, align 8
  %15 = alloca ptr, align 8
  %16 = alloca ptr, align 8
  %17 = alloca ptr, align 8
  %18 = alloca ptr, align 8
  %19 = alloca ptr, align 8
  %20 = alloca ptr, align 8
  %21 = alloca i8, align 1
  %22 = alloca i8, align 1
  store ptr %0, ptr %10, align 8, !tbaa !22
  store ptr %1, ptr %11, align 8, !tbaa !39
  store i32 %2, ptr %12, align 4, !tbaa !3
  store ptr %3, ptr %13, align 8, !tbaa !40
  store ptr %4, ptr %14, align 8, !tbaa !40
  store ptr %5, ptr %15, align 8, !tbaa !40
  store ptr %6, ptr %16, align 8, !tbaa !40
  store ptr %7, ptr %17, align 8, !tbaa !40
  store ptr %8, ptr %18, align 8, !tbaa !40
  call void @llvm.lifetime.start.p0(i64 8, ptr %19) #8
  store ptr null, ptr %19, align 8, !tbaa !22
  call void @llvm.lifetime.start.p0(i64 8, ptr %20) #8
  store ptr null, ptr %20, align 8, !tbaa !22
  call void @llvm.lifetime.start.p0(i64 1, ptr %21) #8
  store i8 0, ptr %21, align 1, !tbaa !7
  %23 = load i8, ptr @H5P_init_g, align 1, !tbaa !7, !range !9, !noundef !10
  %24 = trunc i8 %23 to i1
  br i1 %24, label %29, label %25

25:                                               ; preds = %9
  %26 = load i8, ptr @H5_libterm_g, align 1, !tbaa !7, !range !9, !noundef !10
  %27 = trunc i8 %26 to i1
  %28 = xor i1 %27, true
  br label %29

29:                                               ; preds = %25, %9
  %30 = phi i1 [ true, %9 ], [ %28, %25 ]
  %31 = xor i1 %30, true
  %32 = xor i1 %31, true
  %33 = zext i1 %32 to i32
  %34 = sext i32 %33 to i64
  %35 = call i64 @llvm.expect.i64(i64 %34, i64 1)
  %36 = icmp ne i64 %35, 0
  br i1 %36, label %37, label %210

37:                                               ; preds = %29
  %38 = load i32, ptr %12, align 4, !tbaa !3
  %39 = icmp eq i32 %38, 0
  br i1 %39, label %40, label %41

40:                                               ; preds = %37
  br label %41

41:                                               ; preds = %40, %37
  %42 = call noalias ptr @H5FL_reg_calloc(ptr noundef @H5_H5P_genclass_t_reg_free_list)
  store ptr %42, ptr %19, align 8, !tbaa !22
  %43 = icmp eq ptr null, %42
  br i1 %43, label %44, label %63

44:                                               ; preds = %41
  br label %45

45:                                               ; preds = %44
  br label %46

46:                                               ; preds = %45
  br label %47

47:                                               ; preds = %46
  %48 = load i64, ptr @H5E_PLIST_g, align 8, !tbaa !11
  %49 = load i64, ptr @H5E_CANTALLOC_g, align 8, !tbaa !11
  %50 = call i32 (ptr, ptr, i32, i64, i64, ptr, ...) @H5E_printf_stack(ptr noundef @.str.7, ptr noundef @__func__.H5P__create_class, i32 noundef 1795, i64 noundef %48, i64 noundef %49, ptr noundef @.str.35)
  br label %51

51:                                               ; preds = %47
  br label %52

52:                                               ; preds = %51
  store i8 1, ptr %21, align 1, !tbaa !7
  %53 = load i8, ptr %21, align 1, !tbaa !7, !range !9, !noundef !10
  %54 = trunc i8 %53 to i1
  %55 = zext i1 %54 to i8
  store i8 %55, ptr %21, align 1, !tbaa !7
  br label %56

56:                                               ; preds = %52
  br label %57

57:                                               ; preds = %56
  br label %58

58:                                               ; preds = %57
  store ptr null, ptr %20, align 8, !tbaa !22
  br label %179

59:                                               ; No predecessors!
  br label %60

60:                                               ; preds = %59
  br label %61

61:                                               ; preds = %60
  br label %62

62:                                               ; preds = %61
  br label %63

63:                                               ; preds = %62, %41
  %64 = load ptr, ptr %10, align 8, !tbaa !22
  %65 = load ptr, ptr %19, align 8, !tbaa !22
  %66 = getelementptr inbounds nuw %struct.H5P_genclass_t, ptr %65, i32 0, i32 0
  store ptr %64, ptr %66, align 8, !tbaa !41
  %67 = load ptr, ptr %11, align 8, !tbaa !39
  %68 = call noalias ptr @H5MM_xstrdup(ptr noundef %67)
  %69 = load ptr, ptr %19, align 8, !tbaa !22
  %70 = getelementptr inbounds nuw %struct.H5P_genclass_t, ptr %69, i32 0, i32 1
  store ptr %68, ptr %70, align 8, !tbaa !44
  %71 = icmp eq ptr null, %68
  br i1 %71, label %72, label %91

72:                                               ; preds = %63
  br label %73

73:                                               ; preds = %72
  br label %74

74:                                               ; preds = %73
  br label %75

75:                                               ; preds = %74
  %76 = load i64, ptr @H5E_PLIST_g, align 8, !tbaa !11
  %77 = load i64, ptr @H5E_CANTALLOC_g, align 8, !tbaa !11
  %78 = call i32 (ptr, ptr, i32, i64, i64, ptr, ...) @H5E_printf_stack(ptr noundef @.str.7, ptr noundef @__func__.H5P__create_class, i32 noundef 1800, i64 noundef %76, i64 noundef %77, ptr noundef @.str.36)
  br label %79

79:                                               ; preds = %75
  br label %80

80:                                               ; preds = %79
  store i8 1, ptr %21, align 1, !tbaa !7
  %81 = load i8, ptr %21, align 1, !tbaa !7, !range !9, !noundef !10
  %82 = trunc i8 %81 to i1
  %83 = zext i1 %82 to i8
  store i8 %83, ptr %21, align 1, !tbaa !7
  br label %84

84:                                               ; preds = %80
  br label %85

85:                                               ; preds = %84
  br label %86

86:                                               ; preds = %85
  store ptr null, ptr %20, align 8, !tbaa !22
  br label %179

87:                                               ; No predecessors!
  br label %88

88:                                               ; preds = %87
  br label %89

89:                                               ; preds = %88
  br label %90

90:                                               ; preds = %89
  br label %91

91:                                               ; preds = %90, %63
  %92 = load i32, ptr %12, align 4, !tbaa !3
  %93 = load ptr, ptr %19, align 8, !tbaa !22
  %94 = getelementptr inbounds nuw %struct.H5P_genclass_t, ptr %93, i32 0, i32 2
  store i32 %92, ptr %94, align 8, !tbaa !45
  %95 = load ptr, ptr %19, align 8, !tbaa !22
  %96 = getelementptr inbounds nuw %struct.H5P_genclass_t, ptr %95, i32 0, i32 3
  store i64 0, ptr %96, align 8, !tbaa !46
  %97 = load ptr, ptr %19, align 8, !tbaa !22
  %98 = getelementptr inbounds nuw %struct.H5P_genclass_t, ptr %97, i32 0, i32 4
  store i32 0, ptr %98, align 8, !tbaa !47
  %99 = load ptr, ptr %19, align 8, !tbaa !22
  %100 = getelementptr inbounds nuw %struct.H5P_genclass_t, ptr %99, i32 0, i32 5
  store i32 0, ptr %100, align 4, !tbaa !48
  %101 = load ptr, ptr %19, align 8, !tbaa !22
  %102 = getelementptr inbounds nuw %struct.H5P_genclass_t, ptr %101, i32 0, i32 6
  store i32 1, ptr %102, align 8, !tbaa !49
  %103 = load ptr, ptr %19, align 8, !tbaa !22
  %104 = getelementptr inbounds nuw %struct.H5P_genclass_t, ptr %103, i32 0, i32 7
  store i8 0, ptr %104, align 4, !tbaa !50
  %105 = load i32, ptr @H5P_next_rev, align 4, !tbaa !3
  %106 = add i32 %105, 1
  store i32 %106, ptr @H5P_next_rev, align 4, !tbaa !3
  %107 = load ptr, ptr %19, align 8, !tbaa !22
  %108 = getelementptr inbounds nuw %struct.H5P_genclass_t, ptr %107, i32 0, i32 8
  store i32 %105, ptr %108, align 8, !tbaa !51
  %109 = call ptr @H5SL_create(i32 noundef 2, ptr noundef null)
  %110 = load ptr, ptr %19, align 8, !tbaa !22
  %111 = getelementptr inbounds nuw %struct.H5P_genclass_t, ptr %110, i32 0, i32 9
  store ptr %109, ptr %111, align 8, !tbaa !52
  %112 = icmp eq ptr null, %109
  br i1 %112, label %113, label %132

113:                                              ; preds = %91
  br label %114

114:                                              ; preds = %113
  br label %115

115:                                              ; preds = %114
  br label %116

116:                                              ; preds = %115
  %117 = load i64, ptr @H5E_PLIST_g, align 8, !tbaa !11
  %118 = load i64, ptr @H5E_CANTCREATE_g, align 8, !tbaa !11
  %119 = call i32 (ptr, ptr, i32, i64, i64, ptr, ...) @H5E_printf_stack(ptr noundef @.str.7, ptr noundef @__func__.H5P__create_class, i32 noundef 1811, i64 noundef %117, i64 noundef %118, ptr noundef @.str.37)
  br label %120

120:                                              ; preds = %116
  br label %121

121:                                              ; preds = %120
  store i8 1, ptr %21, align 1, !tbaa !7
  %122 = load i8, ptr %21, align 1, !tbaa !7, !range !9, !noundef !10
  %123 = trunc i8 %122 to i1
  %124 = zext i1 %123 to i8
  store i8 %124, ptr %21, align 1, !tbaa !7
  br label %125

125:                                              ; preds = %121
  br label %126

126:                                              ; preds = %125
  br label %127

127:                                              ; preds = %126
  store ptr null, ptr %20, align 8, !tbaa !22
  br label %179

128:                                              ; No predecessors!
  br label %129

129:                                              ; preds = %128
  br label %130

130:                                              ; preds = %129
  br label %131

131:                                              ; preds = %130
  br label %132

132:                                              ; preds = %131, %91
  %133 = load ptr, ptr %13, align 8, !tbaa !40
  %134 = load ptr, ptr %19, align 8, !tbaa !22
  %135 = getelementptr inbounds nuw %struct.H5P_genclass_t, ptr %134, i32 0, i32 10
  store ptr %133, ptr %135, align 8, !tbaa !53
  %136 = load ptr, ptr %14, align 8, !tbaa !40
  %137 = load ptr, ptr %19, align 8, !tbaa !22
  %138 = getelementptr inbounds nuw %struct.H5P_genclass_t, ptr %137, i32 0, i32 11
  store ptr %136, ptr %138, align 8, !tbaa !54
  %139 = load ptr, ptr %15, align 8, !tbaa !40
  %140 = load ptr, ptr %19, align 8, !tbaa !22
  %141 = getelementptr inbounds nuw %struct.H5P_genclass_t, ptr %140, i32 0, i32 12
  store ptr %139, ptr %141, align 8, !tbaa !55
  %142 = load ptr, ptr %16, align 8, !tbaa !40
  %143 = load ptr, ptr %19, align 8, !tbaa !22
  %144 = getelementptr inbounds nuw %struct.H5P_genclass_t, ptr %143, i32 0, i32 13
  store ptr %142, ptr %144, align 8, !tbaa !56
  %145 = load ptr, ptr %17, align 8, !tbaa !40
  %146 = load ptr, ptr %19, align 8, !tbaa !22
  %147 = getelementptr inbounds nuw %struct.H5P_genclass_t, ptr %146, i32 0, i32 14
  store ptr %145, ptr %147, align 8, !tbaa !57
  %148 = load ptr, ptr %18, align 8, !tbaa !40
  %149 = load ptr, ptr %19, align 8, !tbaa !22
  %150 = getelementptr inbounds nuw %struct.H5P_genclass_t, ptr %149, i32 0, i32 15
  store ptr %148, ptr %150, align 8, !tbaa !58
  %151 = load ptr, ptr %10, align 8, !tbaa !22
  %152 = icmp ne ptr %151, null
  br i1 %152, label %153, label %177

153:                                              ; preds = %132
  %154 = load ptr, ptr %10, align 8, !tbaa !22
  %155 = call i32 @H5P__access_class(ptr noundef %154, i32 noundef 0)
  %156 = icmp slt i32 %155, 0
  br i1 %156, label %157, label %176

157:                                              ; preds = %153
  br label %158

158:                                              ; preds = %157
  br label %159

159:                                              ; preds = %158
  br label %160

160:                                              ; preds = %159
  %161 = load i64, ptr @H5E_PLIST_g, align 8, !tbaa !11
  %162 = load i64, ptr @H5E_CANTINIT_g, align 8, !tbaa !11
  %163 = call i32 (ptr, ptr, i32, i64, i64, ptr, ...) @H5E_printf_stack(ptr noundef @.str.7, ptr noundef @__func__.H5P__create_class, i32 noundef 1824, i64 noundef %161, i64 noundef %162, ptr noundef @.str.38)
  br label %164

164:                                              ; preds = %160
  br label %165

165:                                              ; preds = %164
  store i8 1, ptr %21, align 1, !tbaa !7
  %166 = load i8, ptr %21, align 1, !tbaa !7, !range !9, !noundef !10
  %167 = trunc i8 %166 to i1
  %168 = zext i1 %167 to i8
  store i8 %168, ptr %21, align 1, !tbaa !7
  br label %169

169:                                              ; preds = %165
  br label %170

170:                                              ; preds = %169
  br label %171

171:                                              ; preds = %170
  store ptr null, ptr %20, align 8, !tbaa !22
  br label %179

172:                                              ; No predecessors!
  br label %173

173:                                              ; preds = %172
  br label %174

174:                                              ; preds = %173
  br label %175

175:                                              ; preds = %174
  br label %176

176:                                              ; preds = %175, %153
  br label %177

177:                                              ; preds = %176, %132
  %178 = load ptr, ptr %19, align 8, !tbaa !22
  store ptr %178, ptr %20, align 8, !tbaa !22
  br label %179

179:                                              ; preds = %177, %171, %127, %86, %58
  %180 = load ptr, ptr %20, align 8, !tbaa !22
  %181 = icmp eq ptr %180, null
  br i1 %181, label %182, label %209

182:                                              ; preds = %179
  %183 = load ptr, ptr %19, align 8, !tbaa !22
  %184 = icmp ne ptr %183, null
  br i1 %184, label %185, label %208

185:                                              ; preds = %182
  %186 = load ptr, ptr %19, align 8, !tbaa !22
  %187 = getelementptr inbounds nuw %struct.H5P_genclass_t, ptr %186, i32 0, i32 1
  %188 = load ptr, ptr %187, align 8, !tbaa !44
  %189 = icmp ne ptr %188, null
  br i1 %189, label %190, label %195

190:                                              ; preds = %185
  %191 = load ptr, ptr %19, align 8, !tbaa !22
  %192 = getelementptr inbounds nuw %struct.H5P_genclass_t, ptr %191, i32 0, i32 1
  %193 = load ptr, ptr %192, align 8, !tbaa !44
  %194 = call ptr @H5MM_xfree(ptr noundef %193)
  br label %195

195:                                              ; preds = %190, %185
  %196 = load ptr, ptr %19, align 8, !tbaa !22
  %197 = getelementptr inbounds nuw %struct.H5P_genclass_t, ptr %196, i32 0, i32 9
  %198 = load ptr, ptr %197, align 8, !tbaa !52
  %199 = icmp ne ptr %198, null
  br i1 %199, label %200, label %205

200:                                              ; preds = %195
  call void @llvm.lifetime.start.p0(i64 1, ptr %22) #8
  store i8 0, ptr %22, align 1, !tbaa !7
  %201 = load ptr, ptr %19, align 8, !tbaa !22
  %202 = getelementptr inbounds nuw %struct.H5P_genclass_t, ptr %201, i32 0, i32 9
  %203 = load ptr, ptr %202, align 8, !tbaa !52
  %204 = call i32 @H5SL_destroy(ptr noundef %203, ptr noundef @H5P__free_prop_cb, ptr noundef %22)
  call void @llvm.lifetime.end.p0(i64 1, ptr %22) #8
  br label %205

205:                                              ; preds = %200, %195
  %206 = load ptr, ptr %19, align 8, !tbaa !22
  %207 = call ptr @H5FL_reg_free(ptr noundef @H5_H5P_genclass_t_reg_free_list, ptr noundef %206)
  store ptr %207, ptr %19, align 8, !tbaa !22
  br label %208

208:                                              ; preds = %205, %182
  br label %209

209:                                              ; preds = %208, %179
  br label %210

210:                                              ; preds = %209, %29
  %211 = load ptr, ptr %20, align 8, !tbaa !22
  call void @llvm.lifetime.end.p0(i64 1, ptr %21) #8
  call void @llvm.lifetime.end.p0(i64 8, ptr %20) #8
  call void @llvm.lifetime.end.p0(i64 8, ptr %19) #8
  ret ptr %211
}