; Function Attrs: nounwind uwtable
define ptr @H5P__create_class(ptr noundef %0, ptr noundef %1, i32 noundef %2, ptr noundef %3, ptr noundef %4, ptr noundef %5, ptr noundef %6, ptr noundef %7, ptr noundef %8) local_unnamed_addr #0 {
  %10 = alloca i8, align 1
  %11 = load i8, ptr @H5P_init_g, align 1, !tbaa !3, !range !7, !noundef !8
  %12 = trunc nuw i8 %11 to i1
  %13 = load i8, ptr @H5_libterm_g, align 1, !range !7
  %14 = trunc nuw i8 %13 to i1
  %15 = xor i1 %14, true
  %16 = select i1 %12, i1 true, i1 %15
  br i1 %16, label %17, label %.thread, !prof !9

17:                                               ; preds = %9
  %18 = tail call noalias ptr @H5FL_reg_calloc(ptr noundef nonnull @H5_H5P_genclass_t_reg_free_list) #14
  %19 = icmp eq ptr %18, null
  br i1 %19, label %20, label %24

20:                                               ; preds = %17
  %21 = load i64, ptr @H5E_PLIST_g, align 8, !tbaa !10
  %22 = load i64, ptr @H5E_CANTALLOC_g, align 8, !tbaa !10
  %23 = tail call i32 (ptr, ptr, i32, i64, i64, ptr, ...) @H5E_printf_stack(ptr noundef nonnull @.str.7, ptr noundef nonnull @__func__.H5P__create_class, i32 noundef 1795, i64 noundef %21, i64 noundef %22, ptr noundef nonnull @.str.35) #14
  br label %.thread

24:                                               ; preds = %17
  store ptr %0, ptr %18, align 8, !tbaa !38
  %25 = tail call noalias ptr @H5MM_xstrdup(ptr noundef %1) #14
  %26 = getelementptr inbounds nuw i8, ptr %18, i64 8
  store ptr %25, ptr %26, align 8, !tbaa !41
  %27 = icmp eq ptr %25, null
  br i1 %27, label %.thread49, label %31

.thread49:                                        ; preds = %24
  %28 = load i64, ptr @H5E_PLIST_g, align 8, !tbaa !10
  %29 = load i64, ptr @H5E_CANTALLOC_g, align 8, !tbaa !10
  %30 = tail call i32 (ptr, ptr, i32, i64, i64, ptr, ...) @H5E_printf_stack(ptr noundef nonnull @.str.7, ptr noundef nonnull @__func__.H5P__create_class, i32 noundef 1800, i64 noundef %28, i64 noundef %29, ptr noundef nonnull @.str.36) #14
  br label %56

31:                                               ; preds = %24
  %32 = getelementptr inbounds nuw i8, ptr %18, i64 16
  store i32 %2, ptr %32, align 8, !tbaa !42
  %33 = getelementptr inbounds nuw i8, ptr %18, i64 24
  %34 = getelementptr inbounds nuw i8, ptr %18, i64 40
  tail call void @llvm.memset.p0.i64(ptr noundef nonnull align 8 dereferenceable(16) %33, i8 0, i64 16, i1 false)
  store i32 1, ptr %34, align 8, !tbaa !43
  %35 = getelementptr inbounds nuw i8, ptr %18, i64 44
  store i8 0, ptr %35, align 4, !tbaa !44
  %36 = load i32, ptr @H5P_next_rev, align 4, !tbaa !45
  %37 = add i32 %36, 1
  store i32 %37, ptr @H5P_next_rev, align 4, !tbaa !45
  %38 = getelementptr inbounds nuw i8, ptr %18, i64 48
  store i32 %36, ptr %38, align 8, !tbaa !46
  %39 = tail call ptr @H5SL_create(i32 noundef 2, ptr noundef null) #14
  %40 = getelementptr inbounds nuw i8, ptr %18, i64 56
  store ptr %39, ptr %40, align 8, !tbaa !47
  %41 = icmp eq ptr %39, null
  br i1 %41, label %51, label %42

42:                                               ; preds = %31
  %43 = getelementptr inbounds nuw i8, ptr %18, i64 64
  store ptr %3, ptr %43, align 8, !tbaa !48
  %44 = getelementptr inbounds nuw i8, ptr %18, i64 72
  store ptr %4, ptr %44, align 8, !tbaa !49
  %45 = getelementptr inbounds nuw i8, ptr %18, i64 80
  store ptr %5, ptr %45, align 8, !tbaa !50
  %46 = getelementptr inbounds nuw i8, ptr %18, i64 88
  store ptr %6, ptr %46, align 8, !tbaa !51
  %47 = getelementptr inbounds nuw i8, ptr %18, i64 96
  store ptr %7, ptr %47, align 8, !tbaa !52
  %48 = getelementptr inbounds nuw i8, ptr %18, i64 104
  store ptr %8, ptr %48, align 8, !tbaa !53
  %.not = icmp eq ptr %0, null
  br i1 %.not, label %.thread, label %49

49:                                               ; preds = %42
  %50 = tail call i32 @H5P__access_class(ptr noundef nonnull %0, i32 noundef 0)
  br label %.thread

51:                                               ; preds = %31
  %52 = load i64, ptr @H5E_PLIST_g, align 8, !tbaa !10
  %53 = load i64, ptr @H5E_CANTCREATE_g, align 8, !tbaa !10
  %54 = tail call i32 (ptr, ptr, i32, i64, i64, ptr, ...) @H5E_printf_stack(ptr noundef nonnull @.str.7, ptr noundef nonnull @__func__.H5P__create_class, i32 noundef 1811, i64 noundef %52, i64 noundef %53, ptr noundef nonnull @.str.37) #14
  %55 = tail call ptr @H5MM_xfree(ptr noundef nonnull %25) #14
  br label %56

56:                                               ; preds = %.thread49, %51
  %57 = getelementptr inbounds nuw i8, ptr %18, i64 56
  %58 = load ptr, ptr %57, align 8, !tbaa !47
  %.not46 = icmp eq ptr %58, null
  br i1 %.not46, label %61, label %59

59:                                               ; preds = %56
  call void @llvm.lifetime.start.p0(i64 1, ptr nonnull %10) #14
  store i8 0, ptr %10, align 1, !tbaa !3
  %60 = call i32 @H5SL_destroy(ptr noundef nonnull %58, ptr noundef nonnull @H5P__free_prop_cb, ptr noundef nonnull %10) #14
  call void @llvm.lifetime.end.p0(i64 1, ptr nonnull %10) #14
  br label %61

61:                                               ; preds = %59, %56
  %62 = call ptr @H5FL_reg_free(ptr noundef nonnull @H5_H5P_genclass_t_reg_free_list, ptr noundef nonnull %18) #14
  br label %.thread

.thread:                                          ; preds = %20, %42, %49, %61, %9
  %.0 = phi ptr [ null, %61 ], [ null, %9 ], [ %18, %42 ], [ %18, %49 ], [ null, %20 ]
  ret ptr %.0
}